; Function Attrs: mustprogress uwtable
define internal void @_ZN11opencv_test12_GLOBAL__N_157gtest_TestResampleFunc_resample_sin_signal_EvalGenerator_Ev(ptr dead_on_unwind noalias writable sret(%"class.testing::internal::ParamGenerator") align 8 %0) #4 {
  %2 = alloca %"class.testing::internal::CartesianProductHolder3", align 4
  call void @llvm.lifetime.start.p0(i64 52, ptr nonnull %2) #28
  store i32 1234, ptr %2, align 4, !tbaa !34, !alias.scope !36
  %3 = getelementptr inbounds nuw i8, ptr %2, i64 4
  store i32 12345, ptr %3, align 4, !tbaa !39, !alias.scope !36
  %4 = getelementptr inbounds nuw i8, ptr %2, i64 8
  store i32 123456, ptr %4, align 4, !tbaa !40, !alias.scope !36
  %5 = getelementptr inbounds nuw i8, ptr %2, i64 12
  store i32 1234567, ptr %5, align 4, !tbaa !41, !alias.scope !36
  %6 = getelementptr inbounds nuw i8, ptr %2, i64 16
  store i32 12345678, ptr %6, align 4, !tbaa !42, !alias.scope !36
  %7 = getelementptr inbounds nuw i8, ptr %2, i64 20
  store i32 16000, ptr %7, align 4, !tbaa !43, !alias.scope !36
  %8 = getelementptr inbounds nuw i8, ptr %2, i64 24
  store i32 32000, ptr %8, align 4, !tbaa !45, !alias.scope !36
  %9 = getelementptr inbounds nuw i8, ptr %2, i64 28
  store i32 44100, ptr %9, align 4, !tbaa !46, !alias.scope !36
  %10 = getelementptr inbounds nuw i8, ptr %2, i64 32
  store i32 48000, ptr %10, align 4, !tbaa !47, !alias.scope !36
  %11 = getelementptr inbounds nuw i8, ptr %2, i64 36
  store i32 48000, ptr %11, align 4, !tbaa !43, !alias.scope !36
  %12 = getelementptr inbounds nuw i8, ptr %2, i64 40
  store i32 44100, ptr %12, align 4, !tbaa !45, !alias.scope !36
  %13 = getelementptr inbounds nuw i8, ptr %2, i64 44
  store i32 32000, ptr %13, align 4, !tbaa !46, !alias.scope !36
  %14 = getelementptr inbounds nuw i8, ptr %2, i64 48
  store i32 16000, ptr %14, align 4, !tbaa !47, !alias.scope !36
  call void @_ZNK7testing8internal23CartesianProductHolder3INS0_11ValueArray5IjjjjjEENS0_11ValueArray4IjjjjEES5_EcvNS0_14ParamGeneratorISt5tupleIJT_T0_T1_EEEEIjjjEEv(ptr dead_on_unwind writable sret(%"class.testing::internal::ParamGenerator") align 8 %0, ptr noundef nonnull align 4 dereferenceable(52) %2)
  call void @llvm.lifetime.end.p0(i64 52, ptr nonnull %2) #28
  ret void
}